target datalayout = "e-m:e-p270:32:32-p271:32:32-p272:64:64-i64:64-i128:128-f80:128-n8:16:32:64-S128"
target triple = "x86_64-pc-linux-gnu"

%"class.Eigen::Stride" = type { [2 x i8] }
%"class.g2o::BaseVertex" = type { %"class.g2o::OptimizableGraph::Vertex", %"class.Eigen::Map", %"class.Eigen::Matrix", %"class.Eigen::Matrix", %"class.std::stack" }
%"class.g2o::OptimizableGraph::Vertex" = type { %"class.g2o::HyperGraph::Vertex", %"class.g2o::HyperGraph::DataContainer", ptr, ptr, i32, i8, i8, i32, i32, [8 x i8], ptr }
%"class.g2o::HyperGraph::Vertex" = type { %"struct.g2o::HyperGraph::HyperGraphElement", i32, %"class.std::set" }
%"struct.g2o::HyperGraph::HyperGraphElement" = type { ptr }
%"class.std::set" = type { %"class.std::_Rb_tree" }
%"class.std::_Rb_tree" = type { %"struct.std::_Rb_tree<g2o::HyperGraph::Edge *, g2o::HyperGraph::Edge *, std::_Identity<g2o::HyperGraph::Edge *>, std::less<g2o::HyperGraph::Edge *>>::_Rb_tree_impl" }
%"struct.std::_Rb_tree<g2o::HyperGraph::Edge *, g2o::HyperGraph::Edge *, std::_Identity<g2o::HyperGraph::Edge *>, std::less<g2o::HyperGraph::Edge *>>::_Rb_tree_impl" = type { [8 x i8], %"struct.std::_Rb_tree_header" }
%"struct.std::_Rb_tree_header" = type { %"struct.std::_Rb_tree_node_base", i64 }
%"struct.std::_Rb_tree_node_base" = type { i32, ptr, ptr, ptr }
%"class.g2o::HyperGraph::DataContainer" = type { ptr, ptr }
%"class.Eigen::Map" = type { %"class.Eigen::MapBase.base.4", [6 x i8] }
%"class.Eigen::MapBase.base.4" = type { %"class.Eigen::MapBase.base" }
%"class.Eigen::MapBase.base" = type <{ ptr, [2 x i8] }>
%"class.Eigen::Matrix" = type { %"class.Eigen::PlainObjectBase" }
%"class.Eigen::PlainObjectBase" = type { %"class.Eigen::DenseStorage" }
%"class.Eigen::DenseStorage" = type { %"struct.Eigen::internal::plain_array" }
%"struct.Eigen::internal::plain_array" = type { [3 x double] }
%"class.std::stack" = type { %"class.std::vector" }
%"class.std::vector" = type { %"struct.std::_Vector_base" }
%"struct.std::_Vector_base" = type { %"struct.std::_Vector_base<Eigen::Matrix<double, 3, 1>, std::allocator<Eigen::Matrix<double, 3, 1>>>::_Vector_impl" }
%"struct.std::_Vector_base<Eigen::Matrix<double, 3, 1>, std::allocator<Eigen::Matrix<double, 3, 1>>>::_Vector_impl" = type { %"struct.std::_Vector_base<Eigen::Matrix<double, 3, 1>, std::allocator<Eigen::Matrix<double, 3, 1>>>::_Vector_impl_data" }
%"struct.std::_Vector_base<Eigen::Matrix<double, 3, 1>, std::allocator<Eigen::Matrix<double, 3, 1>>>::_Vector_impl_data" = type { ptr, ptr, ptr }
%"class.Eigen::MapBase.1" = type <{ ptr, [8 x i8] }>

; Function Attrs: mustprogress nounwind uwtable
define linkonce_odr void @_ZNSt15__new_allocatorIN5Eigen6MatrixIdLi3ELi1ELi0ELi3ELi1EEEEC2Ev(ptr noundef nonnull align 1 dereferenceable(1) %0) unnamed_addr #1 comdat align 2 {
  %2 = alloca ptr, align 8
  store ptr %0, ptr %2, align 8
  ret void
}

; Function Attrs: mustprogress nounwind uwtable
define linkonce_odr void @_ZNSt12_Vector_baseIN5Eigen6MatrixIdLi3ELi1ELi0ELi3ELi1EEESaIS2_EE17_Vector_impl_dataC2Ev(ptr noundef nonnull align 8 dereferenceable(24) %0) unnamed_addr #1 comdat align 2 {
  %2 = alloca ptr, align 8
  store ptr %0, ptr %2, align 8
  %3 = load ptr, ptr %2, align 8
  %4 = getelementptr inbounds nuw %"struct.std::_Vector_base<Eigen::Matrix<double, 3, 1>, std::allocator<Eigen::Matrix<double, 3, 1>>>::_Vector_impl_data", ptr %3, i32 0, i32 0
  store ptr null, ptr %4, align 8
  %5 = getelementptr inbounds nuw %"struct.std::_Vector_base<Eigen::Matrix<double, 3, 1>, std::allocator<Eigen::Matrix<double, 3, 1>>>::_Vector_impl_data", ptr %3, i32 0, i32 1
  store ptr null, ptr %5, align 8
  %6 = getelementptr inbounds nuw %"struct.std::_Vector_base<Eigen::Matrix<double, 3, 1>, std::allocator<Eigen::Matrix<double, 3, 1>>>::_Vector_impl_data", ptr %3, i32 0, i32 2
  store ptr null, ptr %6, align 8
  ret void
}

; Function Attrs: mustprogress nounwind uwtable
define linkonce_odr void @_ZNSaIN5Eigen6MatrixIdLi3ELi1ELi0ELi3ELi1EEEEC2Ev(ptr noundef nonnull align 1 dereferenceable(1) %0) unnamed_addr #1 comdat align 2 {
  %2 = alloca ptr, align 8
  store ptr %0, ptr %2, align 8
  %3 = load ptr, ptr %2, align 8
  call void @_ZNSt15__new_allocatorIN5Eigen6MatrixIdLi3ELi1ELi0ELi3ELi1EEEEC2Ev(ptr noundef nonnull align 1 dereferenceable(1) %3) #5
  ret void
}

; Function Attrs: mustprogress nounwind uwtable
define linkonce_odr void @_ZN5Eigen8internal28check_static_allocation_sizeIdLi3EEEvv() #1 comdat {
  ret void
}

; Function Attrs: mustprogress nounwind uwtable
define linkonce_odr void @_ZN5Eigen9DenseBaseINS_3MapINS_6MatrixIdLi3ELi3ELi0ELi3ELi3EEELi0ENS_6StrideILi0ELi0EEEEEEC2Ev(ptr noundef nonnull align 1 dereferenceable(1) %0) unnamed_addr #1 comdat align 2 {
  %2 = alloca ptr, align 8
  store ptr %0, ptr %2, align 8
  ret void
}

; Function Attrs: mustprogress nounwind uwtable
define linkonce_odr void @_ZNSt12_Vector_baseIN5Eigen6MatrixIdLi3ELi1ELi0ELi3ELi1EEESaIS2_EE12_Vector_implC2Ev(ptr noundef nonnull align 8 dereferenceable(24) %0) unnamed_addr #1 comdat align 2 {
  %2 = alloca ptr, align 8
  store ptr %0, ptr %2, align 8
  %3 = load ptr, ptr %2, align 8
  call void @_ZNSaIN5Eigen6MatrixIdLi3ELi1ELi0ELi3ELi1EEEEC2Ev(ptr noundef nonnull align 1 dereferenceable(1) %3) #5
  call void @_ZNSt12_Vector_baseIN5Eigen6MatrixIdLi3ELi1ELi0ELi3ELi1EEESaIS2_EE17_Vector_impl_dataC2Ev(ptr noundef nonnull align 8 dereferenceable(24) %3) #5
  ret void
}

; Function Attrs: mustprogress uwtable
define linkonce_odr void @_ZN5Eigen8internal11plain_arrayIdLi3ELi0ELi0EEC2Ev(ptr noundef nonnull align 8 dereferenceable(24) %0) unnamed_addr #2 comdat align 2 {
  %2 = alloca ptr, align 8
  store ptr %0, ptr %2, align 8
  call void @_ZN5Eigen8internal28check_static_allocation_sizeIdLi3EEEvv()
  ret void
}

; Function Attrs: mustprogress nounwind uwtable
define linkonce_odr void @_ZN5Eigen9DenseBaseINS_6MatrixIdLi3ELi1ELi0ELi3ELi1EEEEC2Ev(ptr noundef nonnull align 1 dereferenceable(1) %0) unnamed_addr #1 comdat align 2 {
  %2 = alloca ptr, align 8
  store ptr %0, ptr %2, align 8
  ret void
}

; Function Attrs: mustprogress nounwind uwtable
define linkonce_odr noundef i64 @_ZN5Eigen8internal19variable_if_dynamicIlLi0EE5valueEv() #1 comdat align 2 {
  ret i64 0
}

; Function Attrs: mustprogress nounwind uwtable
define linkonce_odr void @_ZNK5Eigen7MapBaseINS_3MapINS_6MatrixIdLi3ELi3ELi0ELi3ELi3EEELi0ENS_6StrideILi0ELi0EEEEELi0EE11checkSanityIS6_EEvNS_8internal9enable_ifIXeqsr8internal6traitsIT_EE9AlignmentLi0EEPvE4typeE(ptr noundef nonnull align 8 dereferenceable(10) %0, ptr noundef %1) #1 comdat align 2 {
  %3 = alloca ptr, align 8
  %4 = alloca ptr, align 8
  store ptr %0, ptr %3, align 8
  store ptr %1, ptr %4, align 8
  ret void
}

; Function Attrs: mustprogress nounwind uwtable
define linkonce_odr void @_ZN5Eigen8internal19variable_if_dynamicIlLi3EEC2El(ptr noundef nonnull align 1 dereferenceable(1) %0, i64 noundef %1) unnamed_addr #1 comdat align 2 {
  %3 = alloca ptr, align 8
  %4 = alloca i64, align 8
  store ptr %0, ptr %3, align 8
  store i64 %1, ptr %4, align 8
  call void @_ZN5Eigen8internal22ignore_unused_variableIlEEvRKT_(ptr noundef nonnull align 8 dereferenceable(8) %4)
  ret void
}

; Function Attrs: mustprogress uwtable
define linkonce_odr void @_ZN5Eigen10MatrixBaseINS_3MapINS_6MatrixIdLi3ELi3ELi0ELi3ELi3EEELi0ENS_6StrideILi0ELi0EEEEEEC2Ev(ptr noundef nonnull align 1 dereferenceable(1) %0) unnamed_addr #2 comdat align 2 {
  %2 = alloca ptr, align 8
  store ptr %0, ptr %2, align 8
  %3 = load ptr, ptr %2, align 8
  call void @_ZN5Eigen9DenseBaseINS_3MapINS_6MatrixIdLi3ELi3ELi0ELi3ELi3EEELi0ENS_6StrideILi0ELi0EEEEEEC2Ev(ptr noundef nonnull align 1 dereferenceable(1) %3)
  ret void
}

; Function Attrs: mustprogress nounwind uwtable
define linkonce_odr void @_ZNSt12_Vector_baseIN5Eigen6MatrixIdLi3ELi1ELi0ELi3ELi1EEESaIS2_EEC2Ev(ptr noundef nonnull align 8 dereferenceable(24) %0) unnamed_addr #1 comdat align 2 {
  %2 = alloca ptr, align 8
  store ptr %0, ptr %2, align 8
  %3 = load ptr, ptr %2, align 8
  %4 = getelementptr inbounds nuw %"struct.std::_Vector_base", ptr %3, i32 0, i32 0
  call void @_ZNSt12_Vector_baseIN5Eigen6MatrixIdLi3ELi1ELi0ELi3ELi1EEESaIS2_EE12_Vector_implC2Ev(ptr noundef nonnull align 8 dereferenceable(24) %4) #5
  ret void
}

; Function Attrs: mustprogress uwtable
define linkonce_odr void @_ZN5Eigen12DenseStorageIdLi3ELi3ELi1ELi0EEC2Ev(ptr noundef nonnull align 8 dereferenceable(24) %0) unnamed_addr #2 comdat align 2 {
  %2 = alloca ptr, align 8
  store ptr %0, ptr %2, align 8
  %3 = load ptr, ptr %2, align 8
  %4 = getelementptr inbounds nuw %"class.Eigen::DenseStorage", ptr %3, i32 0, i32 0
  call void @_ZN5Eigen8internal11plain_arrayIdLi3ELi0ELi0EEC2Ev(ptr noundef nonnull align 8 dereferenceable(24) %4)
  ret void
}

; Function Attrs: mustprogress uwtable
define linkonce_odr void @_ZN5Eigen10MatrixBaseINS_6MatrixIdLi3ELi1ELi0ELi3ELi1EEEEC2Ev(ptr noundef nonnull align 1 dereferenceable(1) %0) unnamed_addr #2 comdat align 2 {
  %2 = alloca ptr, align 8
  store ptr %0, ptr %2, align 8
  %3 = load ptr, ptr %2, align 8
  call void @_ZN5Eigen9DenseBaseINS_6MatrixIdLi3ELi1ELi0ELi3ELi1EEEEC2Ev(ptr noundef nonnull align 1 dereferenceable(1) %3)
  ret void
}

; Function Attrs: mustprogress nounwind uwtable
define linkonce_odr noundef i64 @_ZNK5Eigen6StrideILi0ELi0EE5innerEv(ptr noundef nonnull align 1 dereferenceable(2) %0) #1 comdat align 2 {
  %2 = alloca ptr, align 8
  store ptr %0, ptr %2, align 8
  %3 = call noundef i64 @_ZN5Eigen8internal19variable_if_dynamicIlLi0EE5valueEv()
  ret i64 %3
}

; Function Attrs: mustprogress uwtable
define linkonce_odr noundef i64 @_ZNK5Eigen6StrideILi0ELi0EE5outerEv(ptr noundef nonnull align 1 dereferenceable(2) %0) #2 comdat align 2 {
  %2 = alloca ptr, align 8
  store ptr %0, ptr %2, align 8
  %3 = call noundef i64 @_ZN5Eigen8internal19variable_if_dynamicIlLi0EE5valueEv()
  ret i64 %3
}

; Function Attrs: mustprogress uwtable
define linkonce_odr void @_ZN5Eigen7MapBaseINS_3MapINS_6MatrixIdLi3ELi3ELi0ELi3ELi3EEELi0ENS_6StrideILi0ELi0EEEEELi0EEC2EPdll(ptr noundef nonnull align 8 dereferenceable(10) %0, ptr noundef %1, i64 noundef %2, i64 noundef %3) unnamed_addr #2 comdat align 2 {
  %5 = alloca ptr, align 8
  %6 = alloca ptr, align 8
  %7 = alloca i64, align 8
  %8 = alloca i64, align 8
  store ptr %0, ptr %5, align 8
  store ptr %1, ptr %6, align 8
  store i64 %2, ptr %7, align 8
  store i64 %3, ptr %8, align 8
  %9 = load ptr, ptr %5, align 8
  call void @_ZN5Eigen10MatrixBaseINS_3MapINS_6MatrixIdLi3ELi3ELi0ELi3ELi3EEELi0ENS_6StrideILi0ELi0EEEEEEC2Ev(ptr noundef nonnull align 1 dereferenceable(1) %9)
  %10 = getelementptr inbounds nuw %"class.Eigen::MapBase.1", ptr %9, i32 0, i32 0
  %11 = load ptr, ptr %6, align 8
  store ptr %11, ptr %10, align 8
  %12 = getelementptr inbounds i8, ptr %9, i64 8
  %13 = load i64, ptr %7, align 8
  call void @_ZN5Eigen8internal19variable_if_dynamicIlLi3EEC2El(ptr noundef nonnull align 1 dereferenceable(1) %12, i64 noundef %13)
  %14 = getelementptr inbounds i8, ptr %9, i64 9
  %15 = load i64, ptr %8, align 8
  call void @_ZN5Eigen8internal19variable_if_dynamicIlLi3EEC2El(ptr noundef nonnull align 1 dereferenceable(1) %14, i64 noundef %15)
  call void @_ZNK5Eigen7MapBaseINS_3MapINS_6MatrixIdLi3ELi3ELi0ELi3ELi3EEELi0ENS_6StrideILi0ELi0EEEEELi0EE11checkSanityIS6_EEvNS_8internal9enable_ifIXeqsr8internal6traitsIT_EE9AlignmentLi0EEPvE4typeE(ptr noundef nonnull align 8 dereferenceable(10) %9, ptr noundef null)
  ret void
}

; Function Attrs: mustprogress nounwind uwtable
define linkonce_odr void @_ZN5Eigen8internal22ignore_unused_variableIlEEvRKT_(ptr noundef nonnull align 8 dereferenceable(8) %0) #1 comdat {
  %2 = alloca ptr, align 8
  store ptr %0, ptr %2, align 8
  ret void
}

; Function Attrs: mustprogress nounwind uwtable
define linkonce_odr void @_ZNSt6vectorIN5Eigen6MatrixIdLi3ELi1ELi0ELi3ELi1EEESaIS2_EEC2Ev(ptr noundef nonnull align 8 dereferenceable(24) %0) unnamed_addr #1 comdat align 2 {
  %2 = alloca ptr, align 8
  store ptr %0, ptr %2, align 8
  %3 = load ptr, ptr %2, align 8
  call void @_ZNSt12_Vector_baseIN5Eigen6MatrixIdLi3ELi1ELi0ELi3ELi1EEESaIS2_EEC2Ev(ptr noundef nonnull align 8 dereferenceable(24) %3) #5
  ret void
}

; Function Attrs: mustprogress nounwind uwtable
define linkonce_odr void @_ZN5Eigen15PlainObjectBaseINS_6MatrixIdLi3ELi1ELi0ELi3ELi1EEEE22_check_template_paramsEv() #1 comdat align 2 {
  ret void
}

; Function Attrs: mustprogress uwtable
define linkonce_odr void @_ZN5Eigen15PlainObjectBaseINS_6MatrixIdLi3ELi1ELi0ELi3ELi1EEEEC2Ev(ptr noundef nonnull align 8 dereferenceable(24) %0) unnamed_addr #2 comdat align 2 {
  %2 = alloca ptr, align 8
  store ptr %0, ptr %2, align 8
  %3 = load ptr, ptr %2, align 8
  call void @_ZN5Eigen10MatrixBaseINS_6MatrixIdLi3ELi1ELi0ELi3ELi1EEEEC2Ev(ptr noundef nonnull align 1 dereferenceable(1) %3)
  %4 = getelementptr inbounds nuw %"class.Eigen::PlainObjectBase", ptr %3, i32 0, i32 0
  call void @_ZN5Eigen12DenseStorageIdLi3ELi3ELi1ELi0EEC2Ev(ptr noundef nonnull align 8 dereferenceable(24) %4)
  ret void
}

; Function Attrs: mustprogress nounwind uwtable
define linkonce_odr void @_ZN5Eigen15PlainObjectBaseINS_6MatrixIdLi3ELi3ELi0ELi3ELi3EEEE22_check_template_paramsEv() #1 comdat align 2 {
  ret void
}

; Function Attrs: mustprogress uwtable
define linkonce_odr void @_ZN5Eigen6StrideILi0ELi0EEC2ERKS1_(ptr noundef nonnull align 1 dereferenceable(2) %0, ptr noundef nonnull align 1 dereferenceable(2) %1) unnamed_addr #2 comdat align 2 {
  %3 = alloca ptr, align 8
  %4 = alloca ptr, align 8
  store ptr %0, ptr %3, align 8
  store ptr %1, ptr %4, align 8
  %5 = load ptr, ptr %3, align 8
  %6 = load ptr, ptr %4, align 8
  %7 = call noundef i64 @_ZNK5Eigen6StrideILi0ELi0EE5outerEv(ptr noundef nonnull align 1 dereferenceable(2) %6)
  call void @_ZN5Eigen8internal19variable_if_dynamicIlLi0EEC2El(ptr noundef nonnull align 1 dereferenceable(1) %5, i64 noundef %7)
  %8 = getelementptr inbounds i8, ptr %5, i64 1
  %9 = load ptr, ptr %4, align 8
  %10 = call noundef i64 @_ZNK5Eigen6StrideILi0ELi0EE5innerEv(ptr noundef nonnull align 1 dereferenceable(2) %9)
  call void @_ZN5Eigen8internal19variable_if_dynamicIlLi0EEC2El(ptr noundef nonnull align 1 dereferenceable(1) %8, i64 noundef %10)
  ret void
}

; Function Attrs: mustprogress uwtable
define linkonce_odr void @_ZN5Eigen7MapBaseINS_3MapINS_6MatrixIdLi3ELi3ELi0ELi3ELi3EEELi0ENS_6StrideILi0ELi0EEEEELi1EEC2EPdll(ptr noundef nonnull align 8 dereferenceable(10) %0, ptr noundef %1, i64 noundef %2, i64 noundef %3) unnamed_addr #2 comdat align 2 {
  %5 = alloca ptr, align 8
  %6 = alloca ptr, align 8
  %7 = alloca i64, align 8
  %8 = alloca i64, align 8
  store ptr %0, ptr %5, align 8
  store ptr %1, ptr %6, align 8
  store i64 %2, ptr %7, align 8
  store i64 %3, ptr %8, align 8
  %9 = load ptr, ptr %5, align 8
  %10 = load ptr, ptr %6, align 8
  %11 = load i64, ptr %7, align 8
  %12 = load i64, ptr %8, align 8
  call void @_ZN5Eigen7MapBaseINS_3MapINS_6MatrixIdLi3ELi3ELi0ELi3ELi3EEELi0ENS_6StrideILi0ELi0EEEEELi0EEC2EPdll(ptr noundef nonnull align 8 dereferenceable(10) %9, ptr noundef %10, i64 noundef %11, i64 noundef %12)
  ret void
}

; Function Attrs: mustprogress nounwind uwtable
define linkonce_odr noundef ptr @_ZN5Eigen3MapINS_6MatrixIdLi3ELi3ELi0ELi3ELi3EEELi0ENS_6StrideILi0ELi0EEEE20cast_to_pointer_typeEPd(ptr noundef nonnull align 8 dereferenceable(12) %0, ptr noundef %1) #1 comdat align 2 {
  %3 = alloca ptr, align 8
  %4 = alloca ptr, align 8
  store ptr %0, ptr %3, align 8
  store ptr %1, ptr %4, align 8
  %5 = load ptr, ptr %4, align 8
  ret ptr %5
}

; Function Attrs: mustprogress nounwind uwtable
define linkonce_odr void @_ZN5Eigen8internal19variable_if_dynamicIlLi0EEC2El(ptr noundef nonnull align 1 dereferenceable(1) %0, i64 noundef %1) unnamed_addr #1 comdat align 2 {
  %3 = alloca ptr, align 8
  %4 = alloca i64, align 8
  store ptr %0, ptr %3, align 8
  store i64 %1, ptr %4, align 8
  call void @_ZN5Eigen8internal22ignore_unused_variableIlEEvRKT_(ptr noundef nonnull align 8 dereferenceable(8) %4)
  ret void
}

; Function Attrs: mustprogress nounwind uwtable
define linkonce_odr void @_ZNSt5stackIN5Eigen6MatrixIdLi3ELi1ELi0ELi3ELi1EEESt6vectorIS2_SaIS2_EEEC2IS5_vEEv(ptr noundef nonnull align 8 dereferenceable(24) %0) unnamed_addr #1 comdat align 2 {
  %2 = alloca ptr, align 8
  store ptr %0, ptr %2, align 8
  %3 = load ptr, ptr %2, align 8
  %4 = getelementptr inbounds nuw %"class.std::stack", ptr %3, i32 0, i32 0
  call void @llvm.memset.p0.i64(ptr align 8 %4, i8 0, i64 24, i1 false)
  call void @_ZNSt6vectorIN5Eigen6MatrixIdLi3ELi1ELi0ELi3ELi1EEESaIS2_EEC2Ev(ptr noundef nonnull align 8 dereferenceable(24) %4) #5
  ret void
}

; Function Attrs: mustprogress uwtable
define linkonce_odr void @_ZN5Eigen6MatrixIdLi3ELi1ELi0ELi3ELi1EEC2Ev(ptr noundef nonnull align 8 dereferenceable(24) %0) unnamed_addr #2 comdat align 2 {
  %2 = alloca ptr, align 8
  store ptr %0, ptr %2, align 8
  %3 = load ptr, ptr %2, align 8
  call void @_ZN5Eigen15PlainObjectBaseINS_6MatrixIdLi3ELi1ELi0ELi3ELi1EEEEC2Ev(ptr noundef nonnull align 8 dereferenceable(24) %3)
  call void @_ZN5Eigen15PlainObjectBaseINS_6MatrixIdLi3ELi1ELi0ELi3ELi1EEEE22_check_template_paramsEv()
  ret void
}

; Function Attrs: mustprogress uwtable
define linkonce_odr void @_ZN5Eigen3MapINS_6MatrixIdLi3ELi3ELi0ELi3ELi3EEELi0ENS_6StrideILi0ELi0EEEEC2EPdllRKS4_(ptr noundef nonnull align 8 dereferenceable(12) %0, ptr noundef %1, i64 noundef %2, i64 noundef %3, ptr noundef nonnull align 1 dereferenceable(2) %4) unnamed_addr #2 comdat align 2 {
  %6 = alloca ptr, align 8
  %7 = alloca ptr, align 8
  %8 = alloca i64, align 8
  %9 = alloca i64, align 8
  %10 = alloca ptr, align 8
  store ptr %0, ptr %6, align 8
  store ptr %1, ptr %7, align 8
  store i64 %2, ptr %8, align 8
  store i64 %3, ptr %9, align 8
  store ptr %4, ptr %10, align 8
  %11 = load ptr, ptr %6, align 8
  %12 = load ptr, ptr %7, align 8
  %13 = call noundef ptr @_ZN5Eigen3MapINS_6MatrixIdLi3ELi3ELi0ELi3ELi3EEELi0ENS_6StrideILi0ELi0EEEE20cast_to_pointer_typeEPd(ptr noundef nonnull align 8 dereferenceable(12) %11, ptr noundef %12)
  %14 = load i64, ptr %8, align 8
  %15 = load i64, ptr %9, align 8
  call void @_ZN5Eigen7MapBaseINS_3MapINS_6MatrixIdLi3ELi3ELi0ELi3ELi3EEELi0ENS_6StrideILi0ELi0EEEEELi1EEC2EPdll(ptr noundef nonnull align 8 dereferenceable(10) %11, ptr noundef %13, i64 noundef %14, i64 noundef %15)
  %16 = getelementptr inbounds i8, ptr %11, i64 10
  %17 = load ptr, ptr %10, align 8
  call void @_ZN5Eigen6StrideILi0ELi0EEC2ERKS1_(ptr noundef nonnull align 1 dereferenceable(2) %16, ptr noundef nonnull align 1 dereferenceable(2) %17)
  call void @_ZN5Eigen15PlainObjectBaseINS_6MatrixIdLi3ELi3ELi0ELi3ELi3EEEE22_check_template_paramsEv()
  ret void
}

; Function Attrs: mustprogress uwtable
define linkonce_odr void @_ZN5Eigen6StrideILi0ELi0EEC2Ev(ptr noundef nonnull align 1 dereferenceable(2) %0) unnamed_addr #2 comdat align 2 {
  %2 = alloca ptr, align 8
  store ptr %0, ptr %2, align 8
  %3 = load ptr, ptr %2, align 8
  call void @_ZN5Eigen8internal19variable_if_dynamicIlLi0EEC2El(ptr noundef nonnull align 1 dereferenceable(1) %3, i64 noundef 0)
  %4 = getelementptr inbounds i8, ptr %3, i64 1
  call void @_ZN5Eigen8internal19variable_if_dynamicIlLi0EEC2El(ptr noundef nonnull align 1 dereferenceable(1) %4, i64 noundef 0)
  ret void
}

; Function Attrs: mustprogress uwtable
define linkonce_odr void @_ZN3g2o10BaseVertexILi3EN5Eigen6MatrixIdLi3ELi1ELi0ELi3ELi1EEEEC2Ev(ptr noundef nonnull align 8 dereferenceable(216) %0) unnamed_addr #2 comdat align 2 personality ptr @__gxx_personality_v0 {
  %2 = alloca ptr, align 8
  %3 = alloca %"class.Eigen::Stride", align 1
  %4 = alloca ptr, align 8
  %5 = alloca i32, align 4
  store ptr %0, ptr %2, align 8
  %6 = load ptr, ptr %2, align 8
  call void @_ZN3g2o16OptimizableGraph6VertexC2Ev(ptr noundef nonnull align 8 dereferenceable(128) %6)
  store ptr getelementptr inbounds inrange(-16, 256) ({ [34 x ptr], [4 x ptr] }, ptr @_ZTVN3g2o10BaseVertexILi3EN5Eigen6MatrixIdLi3ELi1ELi0ELi3ELi1EEEEE, i32 0, i32 0, i32 2), ptr %6, align 8
  %7 = getelementptr inbounds i8, ptr %6, i64 64
  store ptr getelementptr inbounds inrange(-16, 16) ({ [34 x ptr], [4 x ptr] }, ptr @_ZTVN3g2o10BaseVertexILi3EN5Eigen6MatrixIdLi3ELi1ELi0ELi3ELi1EEEEE, i32 0, i32 1, i32 2), ptr %7, align 8
  %8 = getelementptr inbounds nuw %"class.g2o::BaseVertex", ptr %6, i32 0, i32 1
  invoke void @_ZN5Eigen6StrideILi0ELi0EEC2Ev(ptr noundef nonnull align 1 dereferenceable(2) %3)
          to label %9 unwind label %18

9:                                                ; preds = %1
  invoke void @_ZN5Eigen3MapINS_6MatrixIdLi3ELi3ELi0ELi3ELi3EEELi0ENS_6StrideILi0ELi0EEEEC2EPdllRKS4_(ptr noundef nonnull align 8 dereferenceable(12) %8, ptr noundef null, i64 noundef 3, i64 noundef 3, ptr noundef nonnull align 1 dereferenceable(2) %3)
          to label %10 unwind label %18

10:                                               ; preds = %9
  %11 = getelementptr inbounds nuw %"class.g2o::BaseVertex", ptr %6, i32 0, i32 2
  invoke void @_ZN5Eigen6MatrixIdLi3ELi1ELi0ELi3ELi1EEC2Ev(ptr noundef nonnull align 8 dereferenceable(24) %11)
          to label %12 unwind label %18

12:                                               ; preds = %10
  %13 = getelementptr inbounds nuw %"class.g2o::BaseVertex", ptr %6, i32 0, i32 3
  invoke void @_ZN5Eigen6MatrixIdLi3ELi1ELi0ELi3ELi1EEC2Ev(ptr noundef nonnull align 8 dereferenceable(24) %13)
          to label %14 unwind label %18

14:                                               ; preds = %12
  %15 = getelementptr inbounds nuw %"class.g2o::BaseVertex", ptr %6, i32 0, i32 4
  invoke void @_ZNSt5stackIN5Eigen6MatrixIdLi3ELi1ELi0ELi3ELi1EEESt6vectorIS2_SaIS2_EEEC2IS5_vEEv(ptr noundef nonnull align 8 dereferenceable(24) %15)
          to label %16 unwind label %18

16:                                               ; preds = %14
  %17 = getelementptr inbounds nuw %"class.g2o::OptimizableGraph::Vertex", ptr %6, i32 0, i32 7
  store i32 3, ptr %17, align 8
  ret void

18:                                               ; preds = %14, %12, %10, %9, %1
  %19 = landingpad { ptr, i32 }
          cleanup
  %20 = extractvalue { ptr, i32 } %19, 0
  store ptr %20, ptr %4, align 8
  %21 = extractvalue { ptr, i32 } %19, 1
  store i32 %21, ptr %5, align 4
  call void @_ZN3g2o16OptimizableGraph6VertexD2Ev(ptr noundef nonnull align 8 dereferenceable(128) %6) #5
  br label %22

22:                                               ; preds = %18
  %23 = load ptr, ptr %4, align 8
  %24 = load i32, ptr %5, align 4
  %25 = insertvalue { ptr, i32 } poison, ptr %23, 0
  %26 = insertvalue { ptr, i32 } %25, i32 %24, 1
  resume { ptr, i32 } %26
}

; Function Attrs: mustprogress uwtable
define void @_ZN3g2o28VertexOdomDifferentialParamsC2Ev(ptr noundef nonnull align 8 dereferenceable(216) %0) unnamed_addr #2 align 2 {
  %2 = alloca ptr, align 8
  store ptr %0, ptr %2, align 8
  %3 = load ptr, ptr %2, align 8
  call void @_ZN3g2o10BaseVertexILi3EN5Eigen6MatrixIdLi3ELi1ELi0ELi3ELi1EEEEC2Ev(ptr noundef nonnull align 8 dereferenceable(216) %3)
  store ptr getelementptr inbounds inrange(-16, 256) ({ [34 x ptr], [4 x ptr] }, ptr @_ZTVN3g2o28VertexOdomDifferentialParamsE, i32 0, i32 0, i32 2), ptr %3, align 8
  %4 = getelementptr inbounds i8, ptr %3, i64 64
  store ptr getelementptr inbounds inrange(-16, 16) ({ [34 x ptr], [4 x ptr] }, ptr @_ZTVN3g2o28VertexOdomDifferentialParamsE, i32 0, i32 1, i32 2), ptr %4, align 8
  ret void
}