; Function Attrs: mustprogress uwtable
define void @_ZN3g2o28VertexOdomDifferentialParamsC2Ev(ptr noundef nonnull align 8 dereferenceable(216) %0) unnamed_addr #3 align 2 personality ptr @__gxx_personality_v0 {
  tail call void @_ZN3g2o16OptimizableGraph6VertexC2Ev(ptr noundef nonnull align 8 dereferenceable(128) %0)
  %2 = getelementptr inbounds i8, ptr %0, i64 64
  %3 = getelementptr inbounds nuw i8, ptr %0, i64 128
  store ptr null, ptr %3, align 8
  %4 = getelementptr inbounds nuw i8, ptr %0, i64 192
  tail call void @llvm.memset.p0.i64(ptr noundef nonnull align 8 dereferenceable(24) %4, i8 0, i64 24, i1 false)
  %5 = getelementptr inbounds nuw i8, ptr %0, i64 104
  store i32 3, ptr %5, align 8
  store ptr getelementptr inbounds inrange(-16, 256) (i8, ptr @_ZTVN3g2o28VertexOdomDifferentialParamsE, i64 16), ptr %0, align 8
  store ptr getelementptr inbounds inrange(-16, 16) (i8, ptr @_ZTVN3g2o28VertexOdomDifferentialParamsE, i64 288), ptr %2, align 8
  ret void
}